target datalayout = "e-m:e-p270:32:32-p271:32:32-p272:64:64-i64:64-i128:128-f80:128-n8:16:32:64-S128"
target triple = "x86_64-pc-linux-gnu"

%struct.DVBSubContext = type { ptr, i32, i32, i32, i32, i32, i32, [257 x [256 x i32]], i32, i64, ptr, ptr, ptr, ptr, ptr }
%struct.DVBSubRegion = type { i32, i32, i32, i32, i32, i32, i32, [1024 x i8], i32, ptr, i32, i32, ptr, ptr }

; Function Attrs: nounwind uwtable
define internal void @delete_regions(ptr noundef %0) #1 {
  %2 = alloca ptr, align 8
  %3 = alloca ptr, align 8
  store ptr %0, ptr %2, align 8, !tbaa !29
  br label %4

4:                                                ; preds = %9, %1
  %5 = load ptr, ptr %2, align 8, !tbaa !29
  %6 = getelementptr inbounds nuw %struct.DVBSubContext, ptr %5, i32 0, i32 10
  %7 = load ptr, ptr %6, align 8, !tbaa !93
  %8 = icmp ne ptr %7, null
  br i1 %8, label %9, label %22

9:                                                ; preds = %4
  call void @llvm.lifetime.start.p0(i64 8, ptr %3) #11
  %10 = load ptr, ptr %2, align 8, !tbaa !29
  %11 = getelementptr inbounds nuw %struct.DVBSubContext, ptr %10, i32 0, i32 10
  %12 = load ptr, ptr %11, align 8, !tbaa !93
  store ptr %12, ptr %3, align 8, !tbaa !88
  %13 = load ptr, ptr %3, align 8, !tbaa !88
  %14 = getelementptr inbounds nuw %struct.DVBSubRegion, ptr %13, i32 0, i32 13
  %15 = load ptr, ptr %14, align 8, !tbaa !94
  %16 = load ptr, ptr %2, align 8, !tbaa !29
  %17 = getelementptr inbounds nuw %struct.DVBSubContext, ptr %16, i32 0, i32 10
  store ptr %15, ptr %17, align 8, !tbaa !93
  %18 = load ptr, ptr %2, align 8, !tbaa !29
  %19 = load ptr, ptr %3, align 8, !tbaa !88
  call void @delete_region_display_list(ptr noundef %18, ptr noundef %19)
  %20 = load ptr, ptr %3, align 8, !tbaa !88
  %21 = getelementptr inbounds nuw %struct.DVBSubRegion, ptr %20, i32 0, i32 9
  call void @av_freep(ptr noundef %21)
  call void @av_freep(ptr noundef %3)
  call void @llvm.lifetime.end.p0(i64 8, ptr %3) #11
  br label %4, !llvm.loop !158

22:                                               ; preds = %4
  ret void
}