; Function Attrs: nounwind uwtable
define internal fastcc void @delete_regions(ptr noundef captures(none) %0) unnamed_addr #1 {
  %2 = alloca ptr, align 8
  %3 = getelementptr inbounds nuw i8, ptr %0, i64 263216
  %4 = load ptr, ptr %3, align 8, !tbaa !47
  %.not4 = icmp eq ptr %4, null
  br i1 %.not4, label %._crit_edge, label %.lr.ph

.lr.ph:                                           ; preds = %1, %.lr.ph
  %5 = phi ptr [ %10, %.lr.ph ], [ %4, %1 ]
  call void @llvm.lifetime.start.p0(i64 8, ptr nonnull %2) #10
  store ptr %5, ptr %2, align 8, !tbaa !48
  %6 = getelementptr inbounds nuw i8, ptr %5, i64 1080
  %7 = load ptr, ptr %6, align 8, !tbaa !49
  store ptr %7, ptr %3, align 8, !tbaa !47
  call fastcc void @delete_region_display_list(ptr noundef nonnull %0, ptr noundef nonnull %5)
  %8 = load ptr, ptr %2, align 8, !tbaa !48
  %9 = getelementptr inbounds nuw i8, ptr %8, i64 1056
  call void @av_freep(ptr noundef nonnull %9) #10
  call void @av_freep(ptr noundef nonnull %2) #10
  call void @llvm.lifetime.end.p0(i64 8, ptr nonnull %2) #10
  %10 = load ptr, ptr %3, align 8, !tbaa !47
  %.not = icmp eq ptr %10, null
  br i1 %.not, label %._crit_edge, label %.lr.ph, !llvm.loop !52

._crit_edge:                                      ; preds = %.lr.ph, %1
  ret void
}